; Function Attrs: nounwind uwtable
define ptr @l_Array_foldlMUnsafe_fold___at___private_Lean_Meta_Tactic_Grind_EMatchTheorem_0__Lean_Meta_Grind_checkCoverage___spec__12(ptr readnone captures(none) %0, ptr noundef %1, ptr noundef readonly captures(none) %2, i64 noundef %3, i64 noundef %4, ptr noundef %5) local_unnamed_addr #1 {
  %.not41 = icmp eq i64 %3, %4
  br i1 %.not41, label %._crit_edge, label %.lr.ph

.lr.ph:                                           ; preds = %6
  %7 = getelementptr inbounds nuw i8, ptr %2, i64 24
  br label %8

8:                                                ; preds = %.lr.ph, %lean_dec.exit27
  %.02043 = phi i64 [ %3, %.lr.ph ], [ %19, %lean_dec.exit27 ]
  %.02442 = phi ptr [ %5, %.lr.ph ], [ %.226, %lean_dec.exit27 ]
  %9 = getelementptr inbounds nuw [0 x ptr], ptr %7, i64 0, i64 %.02043
  %10 = load ptr, ptr %9, align 8, !tbaa !9
  %11 = ptrtoint ptr %10 to i64
  %12 = and i64 %11, 1
  %.not.i30 = icmp eq i64 %12, 0
  br i1 %.not.i30, label %13, label %lean_array_uget.exit

13:                                               ; preds = %8
  %.val.i.i = load i32, ptr %10, align 4, !tbaa !4
  %14 = icmp sgt i32 %.val.i.i, 0
  br i1 %14, label %15, label %17, !prof !11

15:                                               ; preds = %13
  %16 = add nuw i32 %.val.i.i, 1
  store i32 %16, ptr %10, align 4, !tbaa !4
  br label %lean_array_uget.exit

17:                                               ; preds = %13
  %.not.i.i = icmp eq i32 %.val.i.i, 0
  br i1 %.not.i.i, label %lean_array_uget.exit, label %18

18:                                               ; preds = %17
  tail call void @lean_inc_ref_cold(ptr noundef nonnull %10) #9
  br label %lean_array_uget.exit

lean_array_uget.exit:                             ; preds = %8, %15, %17, %18
  %19 = add i64 %.02043, 1
  %20 = tail call ptr @l_Lean_RBNode_findCore___at_Lean_Meta_Closure_process___spec__1(ptr noundef %1, ptr noundef %10) #9
  %21 = ptrtoint ptr %20 to i64
  %22 = and i64 %21, 1
  %.not.i31 = icmp eq i64 %22, 0
  br i1 %.not.i31, label %lean_obj_tag.exit.thread, label %lean_obj_tag.exit

lean_obj_tag.exit:                                ; preds = %lean_array_uget.exit
  %23 = and i64 %21, 8589934590
  %24 = icmp eq i64 %23, 0
  br i1 %24, label %27, label %lean_dec.exit

lean_obj_tag.exit.thread:                         ; preds = %lean_array_uget.exit
  %25 = getelementptr i8, ptr %20, i64 4
  %.val.i = load i32, ptr %25, align 4
  %26 = icmp ult i32 %.val.i, 16777216
  br i1 %26, label %27, label %.thread

27:                                               ; preds = %lean_obj_tag.exit.thread, %lean_obj_tag.exit
  br i1 %.not.i30, label %28, label %lean_dec.exit27

28:                                               ; preds = %27
  %29 = load i32, ptr %10, align 4, !tbaa !4
  %30 = icmp sgt i32 %29, 1
  br i1 %30, label %31, label %33, !prof !11

31:                                               ; preds = %28
  %32 = add nsw i32 %29, -1
  store i32 %32, ptr %10, align 4, !tbaa !4
  br label %lean_dec.exit27

33:                                               ; preds = %28
  %.not.i = icmp eq i32 %29, 0
  br i1 %.not.i, label %lean_dec.exit27, label %34

34:                                               ; preds = %33
  tail call void @lean_dec_ref_cold(ptr noundef nonnull %10) #9
  br label %lean_dec.exit27

.thread:                                          ; preds = %lean_obj_tag.exit.thread
  %35 = load i32, ptr %20, align 4, !tbaa !4
  %36 = icmp sgt i32 %35, 1
  br i1 %36, label %37, label %39, !prof !11

37:                                               ; preds = %.thread
  %38 = add nsw i32 %35, -1
  store i32 %38, ptr %20, align 4, !tbaa !4
  br label %lean_dec.exit

39:                                               ; preds = %.thread
  %.not.i28 = icmp eq i32 %35, 0
  br i1 %.not.i28, label %lean_dec.exit, label %40

40:                                               ; preds = %39
  tail call void @lean_dec_ref_cold(ptr noundef nonnull %20) #9
  br label %lean_dec.exit

lean_dec.exit:                                    ; preds = %lean_obj_tag.exit, %40, %39, %37
  %41 = tail call ptr @l_Lean_RBNode_insert___at_Lean_FVarIdSet_insert___spec__1(ptr noundef %.02442, ptr noundef %10, ptr noundef nonnull inttoptr (i64 1 to ptr)) #9
  br label %lean_dec.exit27

lean_dec.exit27:                                  ; preds = %27, %31, %33, %34, %lean_dec.exit
  %.226 = phi ptr [ %41, %lean_dec.exit ], [ %.02442, %34 ], [ %.02442, %33 ], [ %.02442, %31 ], [ %.02442, %27 ]
  %.not = icmp eq i64 %19, %4
  br i1 %.not, label %._crit_edge, label %8

._crit_edge:                                      ; preds = %lean_dec.exit27, %6
  %.024.lcssa = phi ptr [ %5, %6 ], [ %.226, %lean_dec.exit27 ]
  ret ptr %.024.lcssa
}